target datalayout = "e-m:e-p270:32:32-p271:32:32-p272:64:64-i64:64-i128:128-f80:128-n8:16:32:64-S128"
target triple = "x86_64-pc-linux-gnu"

%struct.SDL_PixelFormatDetails = type { i32, i8, i8, [2 x i8], i32, i32, i32, i32, i8, i8, i8, i8, i8, i8, i8, i8 }

@SDL_expand_byte = external global [9 x ptr], align 16

; Function Attrs: nounwind uwtable
define internal i32 @copy_opaque_16(ptr noundef %0, ptr noundef %1, i32 noundef %2, ptr noundef %3, ptr noundef %4) #0 {
  %6 = alloca ptr, align 8
  %7 = alloca ptr, align 8
  %8 = alloca i32, align 4
  %9 = alloca ptr, align 8
  %10 = alloca ptr, align 8
  %11 = alloca i32, align 4
  %12 = alloca ptr, align 8
  %13 = alloca i32, align 4
  %14 = alloca i32, align 4
  %15 = alloca i32, align 4
  store ptr %0, ptr %6, align 8
  store ptr %1, ptr %7, align 8
  store i32 %2, ptr %8, align 4
  store ptr %3, ptr %9, align 8
  store ptr %4, ptr %10, align 8
  call void @llvm.lifetime.start.p0(i64 4, ptr %11) #8
  call void @llvm.lifetime.start.p0(i64 8, ptr %12) #8
  %16 = load ptr, ptr %6, align 8
  store ptr %16, ptr %12, align 8
  store i32 0, ptr %11, align 4
  br label %17

17:                                               ; preds = %133, %5
  %18 = load i32, ptr %11, align 4
  %19 = load i32, ptr %8, align 4
  %20 = icmp slt i32 %18, %19
  br i1 %20, label %21, label %136

21:                                               ; preds = %17
  call void @llvm.lifetime.start.p0(i64 4, ptr %13) #8
  call void @llvm.lifetime.start.p0(i64 4, ptr %14) #8
  call void @llvm.lifetime.start.p0(i64 4, ptr %15) #8
  %22 = load ptr, ptr %9, align 8
  %23 = getelementptr inbounds nuw %struct.SDL_PixelFormatDetails, ptr %22, i32 0, i32 8
  %24 = load i8, ptr %23, align 4
  %25 = zext i8 %24 to i64
  %26 = getelementptr inbounds nuw [9 x ptr], ptr @SDL_expand_byte, i64 0, i64 %25
  %27 = load ptr, ptr %26, align 8
  %28 = load ptr, ptr %7, align 8
  %29 = load i32, ptr %28, align 4
  %30 = load ptr, ptr %9, align 8
  %31 = getelementptr inbounds nuw %struct.SDL_PixelFormatDetails, ptr %30, i32 0, i32 4
  %32 = load i32, ptr %31, align 4
  %33 = and i32 %29, %32
  %34 = load ptr, ptr %9, align 8
  %35 = getelementptr inbounds nuw %struct.SDL_PixelFormatDetails, ptr %34, i32 0, i32 12
  %36 = load i8, ptr %35, align 4
  %37 = zext i8 %36 to i32
  %38 = lshr i32 %33, %37
  %39 = zext i32 %38 to i64
  %40 = getelementptr inbounds nuw i8, ptr %27, i64 %39
  %41 = load i8, ptr %40, align 1
  %42 = zext i8 %41 to i32
  store i32 %42, ptr %13, align 4
  %43 = load ptr, ptr %9, align 8
  %44 = getelementptr inbounds nuw %struct.SDL_PixelFormatDetails, ptr %43, i32 0, i32 9
  %45 = load i8, ptr %44, align 1
  %46 = zext i8 %45 to i64
  %47 = getelementptr inbounds nuw [9 x ptr], ptr @SDL_expand_byte, i64 0, i64 %46
  %48 = load ptr, ptr %47, align 8
  %49 = load ptr, ptr %7, align 8
  %50 = load i32, ptr %49, align 4
  %51 = load ptr, ptr %9, align 8
  %52 = getelementptr inbounds nuw %struct.SDL_PixelFormatDetails, ptr %51, i32 0, i32 5
  %53 = load i32, ptr %52, align 4
  %54 = and i32 %50, %53
  %55 = load ptr, ptr %9, align 8
  %56 = getelementptr inbounds nuw %struct.SDL_PixelFormatDetails, ptr %55, i32 0, i32 13
  %57 = load i8, ptr %56, align 1
  %58 = zext i8 %57 to i32
  %59 = lshr i32 %54, %58
  %60 = zext i32 %59 to i64
  %61 = getelementptr inbounds nuw i8, ptr %48, i64 %60
  %62 = load i8, ptr %61, align 1
  %63 = zext i8 %62 to i32
  store i32 %63, ptr %14, align 4
  %64 = load ptr, ptr %9, align 8
  %65 = getelementptr inbounds nuw %struct.SDL_PixelFormatDetails, ptr %64, i32 0, i32 10
  %66 = load i8, ptr %65, align 2
  %67 = zext i8 %66 to i64
  %68 = getelementptr inbounds nuw [9 x ptr], ptr @SDL_expand_byte, i64 0, i64 %67
  %69 = load ptr, ptr %68, align 8
  %70 = load ptr, ptr %7, align 8
  %71 = load i32, ptr %70, align 4
  %72 = load ptr, ptr %9, align 8
  %73 = getelementptr inbounds nuw %struct.SDL_PixelFormatDetails, ptr %72, i32 0, i32 6
  %74 = load i32, ptr %73, align 4
  %75 = and i32 %71, %74
  %76 = load ptr, ptr %9, align 8
  %77 = getelementptr inbounds nuw %struct.SDL_PixelFormatDetails, ptr %76, i32 0, i32 14
  %78 = load i8, ptr %77, align 2
  %79 = zext i8 %78 to i32
  %80 = lshr i32 %75, %79
  %81 = zext i32 %80 to i64
  %82 = getelementptr inbounds nuw i8, ptr %69, i64 %81
  %83 = load i8, ptr %82, align 1
  %84 = zext i8 %83 to i32
  store i32 %84, ptr %15, align 4
  %85 = load i32, ptr %13, align 4
  %86 = load ptr, ptr %10, align 8
  %87 = getelementptr inbounds nuw %struct.SDL_PixelFormatDetails, ptr %86, i32 0, i32 8
  %88 = load i8, ptr %87, align 4
  %89 = zext i8 %88 to i32
  %90 = sub nsw i32 8, %89
  %91 = lshr i32 %85, %90
  %92 = load ptr, ptr %10, align 8
  %93 = getelementptr inbounds nuw %struct.SDL_PixelFormatDetails, ptr %92, i32 0, i32 12
  %94 = load i8, ptr %93, align 4
  %95 = zext i8 %94 to i32
  %96 = shl i32 %91, %95
  %97 = load i32, ptr %14, align 4
  %98 = load ptr, ptr %10, align 8
  %99 = getelementptr inbounds nuw %struct.SDL_PixelFormatDetails, ptr %98, i32 0, i32 9
  %100 = load i8, ptr %99, align 1
  %101 = zext i8 %100 to i32
  %102 = sub nsw i32 8, %101
  %103 = lshr i32 %97, %102
  %104 = load ptr, ptr %10, align 8
  %105 = getelementptr inbounds nuw %struct.SDL_PixelFormatDetails, ptr %104, i32 0, i32 13
  %106 = load i8, ptr %105, align 1
  %107 = zext i8 %106 to i32
  %108 = shl i32 %103, %107
  %109 = or i32 %96, %108
  %110 = load i32, ptr %15, align 4
  %111 = load ptr, ptr %10, align 8
  %112 = getelementptr inbounds nuw %struct.SDL_PixelFormatDetails, ptr %111, i32 0, i32 10
  %113 = load i8, ptr %112, align 2
  %114 = zext i8 %113 to i32
  %115 = sub nsw i32 8, %114
  %116 = lshr i32 %110, %115
  %117 = load ptr, ptr %10, align 8
  %118 = getelementptr inbounds nuw %struct.SDL_PixelFormatDetails, ptr %117, i32 0, i32 14
  %119 = load i8, ptr %118, align 2
  %120 = zext i8 %119 to i32
  %121 = shl i32 %116, %120
  %122 = or i32 %109, %121
  %123 = load ptr, ptr %10, align 8
  %124 = getelementptr inbounds nuw %struct.SDL_PixelFormatDetails, ptr %123, i32 0, i32 7
  %125 = load i32, ptr %124, align 4
  %126 = or i32 %122, %125
  %127 = trunc i32 %126 to i16
  %128 = load ptr, ptr %12, align 8
  store i16 %127, ptr %128, align 2
  %129 = load ptr, ptr %7, align 8
  %130 = getelementptr inbounds nuw i32, ptr %129, i32 1
  store ptr %130, ptr %7, align 8
  %131 = load ptr, ptr %12, align 8
  %132 = getelementptr inbounds nuw i16, ptr %131, i32 1
  store ptr %132, ptr %12, align 8
  call void @llvm.lifetime.end.p0(i64 4, ptr %15) #8
  call void @llvm.lifetime.end.p0(i64 4, ptr %14) #8
  call void @llvm.lifetime.end.p0(i64 4, ptr %13) #8
  br label %133

133:                                              ; preds = %21
  %134 = load i32, ptr %11, align 4
  %135 = add nsw i32 %134, 1
  store i32 %135, ptr %11, align 4
  br label %17, !llvm.loop !64

136:                                              ; preds = %17
  %137 = load i32, ptr %8, align 4
  %138 = mul nsw i32 %137, 2
  call void @llvm.lifetime.end.p0(i64 8, ptr %12) #8
  call void @llvm.lifetime.end.p0(i64 4, ptr %11) #8
  ret i32 %138
}