; Function Attrs: nofree norecurse nosync nounwind memory(read, argmem: readwrite, inaccessiblemem: none) uwtable
define internal range(i32 -2147483648, 2147483647) i32 @copy_opaque_16(ptr noundef writeonly captures(none) %0, ptr noundef readonly captures(none) %1, i32 noundef %2, ptr noundef readonly captures(none) %3, ptr noundef readonly captures(none) %4) unnamed_addr #6 {
  %6 = icmp sgt i32 %2, 0
  br i1 %6, label %.lr.ph, label %._crit_edge

.lr.ph:                                           ; preds = %5
  %7 = getelementptr inbounds nuw i8, ptr %3, i64 24
  %8 = getelementptr inbounds nuw i8, ptr %3, i64 8
  %9 = getelementptr inbounds nuw i8, ptr %3, i64 28
  %10 = getelementptr inbounds nuw i8, ptr %3, i64 25
  %11 = getelementptr inbounds nuw i8, ptr %3, i64 12
  %12 = getelementptr inbounds nuw i8, ptr %3, i64 29
  %13 = getelementptr inbounds nuw i8, ptr %3, i64 26
  %14 = getelementptr inbounds nuw i8, ptr %3, i64 16
  %15 = getelementptr inbounds nuw i8, ptr %3, i64 30
  %16 = getelementptr inbounds nuw i8, ptr %4, i64 24
  %17 = getelementptr inbounds nuw i8, ptr %4, i64 28
  %18 = getelementptr inbounds nuw i8, ptr %4, i64 25
  %19 = getelementptr inbounds nuw i8, ptr %4, i64 29
  %20 = getelementptr inbounds nuw i8, ptr %4, i64 26
  %21 = getelementptr inbounds nuw i8, ptr %4, i64 30
  %22 = getelementptr inbounds nuw i8, ptr %4, i64 20
  br label %23

23:                                               ; preds = %.lr.ph, %23
  %.034 = phi ptr [ %1, %.lr.ph ], [ %90, %23 ]
  %.02933 = phi i32 [ 0, %.lr.ph ], [ %92, %23 ]
  %.03032 = phi ptr [ %0, %.lr.ph ], [ %91, %23 ]
  %24 = load i8, ptr %7, align 4
  %25 = zext i8 %24 to i64
  %26 = getelementptr inbounds nuw [9 x ptr], ptr @SDL_expand_byte, i64 0, i64 %25
  %27 = load ptr, ptr %26, align 8
  %28 = load i32, ptr %.034, align 4
  %29 = load i32, ptr %8, align 4
  %30 = and i32 %29, %28
  %31 = load i8, ptr %9, align 4
  %32 = zext nneg i8 %31 to i32
  %33 = lshr i32 %30, %32
  %34 = zext i32 %33 to i64
  %35 = getelementptr inbounds nuw i8, ptr %27, i64 %34
  %36 = load i8, ptr %35, align 1
  %37 = zext i8 %36 to i32
  %38 = load i8, ptr %10, align 1
  %39 = zext i8 %38 to i64
  %40 = getelementptr inbounds nuw [9 x ptr], ptr @SDL_expand_byte, i64 0, i64 %39
  %41 = load ptr, ptr %40, align 8
  %42 = load i32, ptr %11, align 4
  %43 = and i32 %42, %28
  %44 = load i8, ptr %12, align 1
  %45 = zext nneg i8 %44 to i32
  %46 = lshr i32 %43, %45
  %47 = zext i32 %46 to i64
  %48 = getelementptr inbounds nuw i8, ptr %41, i64 %47
  %49 = load i8, ptr %48, align 1
  %50 = zext i8 %49 to i32
  %51 = load i8, ptr %13, align 2
  %52 = zext i8 %51 to i64
  %53 = getelementptr inbounds nuw [9 x ptr], ptr @SDL_expand_byte, i64 0, i64 %52
  %54 = load ptr, ptr %53, align 8
  %55 = load i32, ptr %14, align 4
  %56 = and i32 %55, %28
  %57 = load i8, ptr %15, align 2
  %58 = zext nneg i8 %57 to i32
  %59 = lshr i32 %56, %58
  %60 = zext i32 %59 to i64
  %61 = getelementptr inbounds nuw i8, ptr %54, i64 %60
  %62 = load i8, ptr %61, align 1
  %63 = zext i8 %62 to i32
  %64 = load i8, ptr %16, align 4
  %65 = zext i8 %64 to i32
  %66 = sub nsw i32 8, %65
  %67 = lshr i32 %37, %66
  %68 = load i8, ptr %17, align 4
  %69 = zext nneg i8 %68 to i32
  %70 = shl i32 %67, %69
  %71 = load i8, ptr %18, align 1
  %72 = zext i8 %71 to i32
  %73 = sub nsw i32 8, %72
  %74 = lshr i32 %50, %73
  %75 = load i8, ptr %19, align 1
  %76 = zext nneg i8 %75 to i32
  %77 = shl i32 %74, %76
  %78 = or i32 %77, %70
  %79 = load i8, ptr %20, align 2
  %80 = zext i8 %79 to i32
  %81 = sub nsw i32 8, %80
  %82 = lshr i32 %63, %81
  %83 = load i8, ptr %21, align 2
  %84 = zext nneg i8 %83 to i32
  %85 = shl i32 %82, %84
  %86 = load i32, ptr %22, align 4
  %87 = or i32 %78, %86
  %88 = or i32 %87, %85
  %89 = trunc i32 %88 to i16
  store i16 %89, ptr %.03032, align 2
  %90 = getelementptr inbounds nuw i8, ptr %.034, i64 4
  %91 = getelementptr inbounds nuw i8, ptr %.03032, i64 2
  %92 = add nuw nsw i32 %.02933, 1
  %exitcond.not = icmp eq i32 %92, %2
  br i1 %exitcond.not, label %._crit_edge, label %23, !llvm.loop !78

._crit_edge:                                      ; preds = %23, %5
  %93 = shl nsw i32 %2, 1
  ret i32 %93
}